target datalayout = "e-m:e-p270:32:32-p271:32:32-p272:64:64-i64:64-i128:128-f80:128-n8:16:32:64-S128"
target triple = "x86_64-pc-linux-gnu"

@_ZN7rocksdb4port9kPageSizeE = external constant i64, align 8

; Function Attrs: mustprogress nounwind uwtable
define noundef i64 @_ZN7rocksdb11clock_cache19AutoHyperClockTable19CalcMaxUsableLengthEmmNS_25CacheMetadataChargePolicyE(i64 noundef %0, i64 noundef %1, i32 noundef %2) #1 align 2 {
  %4 = alloca i64, align 8
  %5 = alloca i64, align 8
  %6 = alloca i32, align 4
  %7 = alloca double, align 8
  %8 = alloca i64, align 8
  %9 = alloca i64, align 8
  store i64 %0, ptr %4, align 8, !tbaa !9
  store i64 %1, ptr %5, align 8, !tbaa !9
  store i32 %2, ptr %6, align 4, !tbaa !13
  call void @llvm.lifetime.start.p0(i64 8, ptr %7) #19
  %10 = load i64, ptr %5, align 8, !tbaa !9
  %11 = uitofp i64 %10 to double
  %12 = fmul double %11, 6.000000e-01
  store double %12, ptr %7, align 8, !tbaa !153
  %13 = load i32, ptr %6, align 4, !tbaa !13
  %14 = icmp eq i32 %13, 1
  br i1 %14, label %15, label %18

15:                                               ; preds = %3
  %16 = load double, ptr %7, align 8, !tbaa !153
  %17 = fadd double %16, 6.400000e+01
  store double %17, ptr %7, align 8, !tbaa !153
  br label %18

18:                                               ; preds = %15, %3
  call void @llvm.lifetime.start.p0(i64 8, ptr %8) #19
  %19 = load i64, ptr %4, align 8, !tbaa !9
  %20 = uitofp i64 %19 to double
  %21 = load double, ptr %7, align 8, !tbaa !153
  %22 = fdiv double %20, %21
  %23 = fadd double %22, 0x3FEFFFFDE7210BE9
  %24 = fptoui double %23 to i64
  store i64 %24, ptr %8, align 8, !tbaa !9
  call void @llvm.lifetime.start.p0(i64 8, ptr %9) #19
  %25 = load i64, ptr @_ZN7rocksdb4port9kPageSizeE, align 8, !tbaa !9
  %26 = udiv i64 %25, 64
  store i64 %26, ptr %9, align 8, !tbaa !9
  %27 = load i64, ptr %8, align 8, !tbaa !9
  %28 = load i64, ptr %9, align 8, !tbaa !9
  %29 = add i64 %27, %28
  %30 = sub i64 %29, 1
  %31 = load i64, ptr %9, align 8, !tbaa !9
  %32 = udiv i64 %30, %31
  %33 = load i64, ptr %9, align 8, !tbaa !9
  %34 = mul i64 %32, %33
  call void @llvm.lifetime.end.p0(i64 8, ptr %9) #19
  call void @llvm.lifetime.end.p0(i64 8, ptr %8) #19
  call void @llvm.lifetime.end.p0(i64 8, ptr %7) #19
  ret i64 %34
}