; Function Attrs: mustprogress nofree norecurse nosync nounwind willreturn memory(none) uwtable
define noundef i64 @_ZN7rocksdb11clock_cache19AutoHyperClockTable19CalcMaxUsableLengthEmmNS_25CacheMetadataChargePolicyE(i64 noundef %0, i64 noundef %1, i32 noundef %2) local_unnamed_addr #11 align 2 {
  %4 = uitofp i64 %1 to double
  %5 = fmul double %4, 6.000000e-01
  %6 = icmp eq i32 %2, 1
  %7 = fadd double %5, 6.400000e+01
  %spec.select = select i1 %6, double %7, double %5
  %8 = uitofp i64 %0 to double
  %9 = fdiv double %8, %spec.select
  %10 = fadd double %9, 0x3FEFFFFDE7210BE9
  %11 = fptoui double %10 to i64
  %12 = load i64, ptr @_ZN7rocksdb4port9kPageSizeE, align 8, !tbaa !17
  %13 = lshr i64 %12, 6
  %14 = add i64 %13, %11
  %.fr8 = freeze i64 %14
  %15 = add i64 %.fr8, -1
  %16 = urem i64 %15, %13
  %17 = sub nuw i64 %15, %16
  ret i64 %17
}